target datalayout = "e-m:e-p270:32:32-p271:32:32-p272:64:64-i64:64-i128:128-f80:128-n8:16:32:64-S128"
target triple = "x86_64-pc-linux-gnu"

%struct.print_stream = type { ptr, ptr }
%struct.output_ps = type { i8, ptr }

@.str.21 = private unnamed_addr constant [10 x i8] c"formfeed\0A\00", align 1

; Function Attrs: null_pointer_is_valid sspstrong uwtable
define internal zeroext i1 @new_page_ps(ptr noundef %0) #0 {
  %2 = alloca ptr, align 8
  %3 = alloca ptr, align 8
  store ptr %0, ptr %2, align 8
  call void @llvm.lifetime.start.p0(i64 8, ptr %3) #11
  %4 = load ptr, ptr %2, align 8
  %5 = getelementptr inbounds nuw %struct.print_stream, ptr %4, i32 0, i32 1
  %6 = load ptr, ptr %5, align 8
  store ptr %6, ptr %3, align 8
  %7 = load ptr, ptr %3, align 8
  %8 = getelementptr inbounds nuw %struct.output_ps, ptr %7, i32 0, i32 1
  %9 = load ptr, ptr %8, align 8
  %10 = call i32 @fputs(ptr noundef @.str.21, ptr noundef %9)
  %11 = load ptr, ptr %3, align 8
  %12 = getelementptr inbounds nuw %struct.output_ps, ptr %11, i32 0, i32 1
  %13 = load ptr, ptr %12, align 8
  %14 = call i32 @ferror(ptr noundef %13) #11
  %15 = icmp ne i32 %14, 0
  %16 = xor i1 %15, true
  call void @llvm.lifetime.end.p0(i64 8, ptr %3) #11
  ret i1 %16
}