; Function Attrs: nofree nounwind null_pointer_is_valid sspstrong uwtable
define internal noundef zeroext i1 @new_page_ps(ptr noundef readonly captures(none) %0) #8 {
  %2 = getelementptr inbounds nuw i8, ptr %0, i64 8
  %3 = load ptr, ptr %2, align 8
  %4 = getelementptr inbounds nuw i8, ptr %3, i64 8
  %5 = load ptr, ptr %4, align 8
  %6 = tail call i64 @fwrite(ptr nonnull @.str.21, i64 9, i64 1, ptr %5)
  %7 = load ptr, ptr %4, align 8
  %8 = tail call i32 @ferror(ptr noundef %7) #13
  %.not = icmp eq i32 %8, 0
  ret i1 %.not
}